target datalayout = "e-m:e-p270:32:32-p271:32:32-p272:64:64-i64:64-i128:128-f80:128-n8:16:32:64-S128"
target triple = "x86_64-pc-linux-gnu"

%struct.StringInfoData = type { ptr, i32, i32, i32 }
%struct.BindParamCbData = type { ptr, i32, ptr }

@log_parameter_max_length_on_error = external global i32, align 4
@.str.150 = private unnamed_addr constant [31 x i8] c"portal \22%s\22 parameter $%d = %s\00", align 1
@.str.151 = private unnamed_addr constant [26 x i8] c"portal \22%s\22 parameter $%d\00", align 1
@.str.152 = private unnamed_addr constant [34 x i8] c"unnamed portal parameter $%d = %s\00", align 1
@.str.153 = private unnamed_addr constant [29 x i8] c"unnamed portal parameter $%d\00", align 1

; Function Attrs: nounwind uwtable
define internal void @bind_param_error_callback(ptr noundef %0) #0 {
  %2 = alloca ptr, align 8
  %3 = alloca ptr, align 8
  %4 = alloca %struct.StringInfoData, align 8
  %5 = alloca ptr, align 8
  %6 = alloca i32, align 4
  store ptr %0, ptr %2, align 8
  call void @llvm.lifetime.start.p0(i64 8, ptr %3) #16
  %7 = load ptr, ptr %2, align 8
  store ptr %7, ptr %3, align 8
  call void @llvm.lifetime.start.p0(i64 24, ptr %4) #16
  call void @llvm.lifetime.start.p0(i64 8, ptr %5) #16
  %8 = load ptr, ptr %3, align 8
  %9 = getelementptr inbounds nuw %struct.BindParamCbData, ptr %8, i32 0, i32 1
  %10 = load i32, ptr %9, align 8
  %11 = icmp slt i32 %10, 0
  br i1 %11, label %12, label %13

12:                                               ; preds = %1
  store i32 1, ptr %6, align 4
  br label %89

13:                                               ; preds = %1
  %14 = load ptr, ptr %3, align 8
  %15 = getelementptr inbounds nuw %struct.BindParamCbData, ptr %14, i32 0, i32 2
  %16 = load ptr, ptr %15, align 8
  %17 = icmp ne ptr %16, null
  br i1 %17, label %18, label %25

18:                                               ; preds = %13
  call void @initStringInfo(ptr noundef %4)
  %19 = load ptr, ptr %3, align 8
  %20 = getelementptr inbounds nuw %struct.BindParamCbData, ptr %19, i32 0, i32 2
  %21 = load ptr, ptr %20, align 8
  %22 = load i32, ptr @log_parameter_max_length_on_error, align 4
  call void @appendStringInfoStringQuoted(ptr noundef %4, ptr noundef %21, i32 noundef %22)
  %23 = getelementptr inbounds nuw %struct.StringInfoData, ptr %4, i32 0, i32 0
  %24 = load ptr, ptr %23, align 8
  store ptr %24, ptr %5, align 8
  br label %26

25:                                               ; preds = %13
  store ptr null, ptr %5, align 8
  br label %26

26:                                               ; preds = %25, %18
  %27 = load ptr, ptr %3, align 8
  %28 = getelementptr inbounds nuw %struct.BindParamCbData, ptr %27, i32 0, i32 0
  %29 = load ptr, ptr %28, align 8
  %30 = icmp ne ptr %29, null
  br i1 %30, label %31, label %64

31:                                               ; preds = %26
  %32 = load ptr, ptr %3, align 8
  %33 = getelementptr inbounds nuw %struct.BindParamCbData, ptr %32, i32 0, i32 0
  %34 = load ptr, ptr %33, align 8
  %35 = getelementptr inbounds i8, ptr %34, i64 0
  %36 = load i8, ptr %35, align 1
  %37 = sext i8 %36 to i32
  %38 = icmp ne i32 %37, 0
  br i1 %38, label %39, label %64

39:                                               ; preds = %31
  %40 = load ptr, ptr %5, align 8
  %41 = icmp ne ptr %40, null
  br i1 %41, label %42, label %53

42:                                               ; preds = %39
  %43 = call i32 @set_errcontext_domain(ptr noundef null)
  %44 = load ptr, ptr %3, align 8
  %45 = getelementptr inbounds nuw %struct.BindParamCbData, ptr %44, i32 0, i32 0
  %46 = load ptr, ptr %45, align 8
  %47 = load ptr, ptr %3, align 8
  %48 = getelementptr inbounds nuw %struct.BindParamCbData, ptr %47, i32 0, i32 1
  %49 = load i32, ptr %48, align 8
  %50 = add i32 %49, 1
  %51 = load ptr, ptr %5, align 8
  %52 = call i32 (ptr, ...) @errcontext_msg(ptr noundef @.str.150, ptr noundef %46, i32 noundef %50, ptr noundef %51)
  br label %63

53:                                               ; preds = %39
  %54 = call i32 @set_errcontext_domain(ptr noundef null)
  %55 = load ptr, ptr %3, align 8
  %56 = getelementptr inbounds nuw %struct.BindParamCbData, ptr %55, i32 0, i32 0
  %57 = load ptr, ptr %56, align 8
  %58 = load ptr, ptr %3, align 8
  %59 = getelementptr inbounds nuw %struct.BindParamCbData, ptr %58, i32 0, i32 1
  %60 = load i32, ptr %59, align 8
  %61 = add i32 %60, 1
  %62 = call i32 (ptr, ...) @errcontext_msg(ptr noundef @.str.151, ptr noundef %57, i32 noundef %61)
  br label %63

63:                                               ; preds = %53, %42
  br label %83

64:                                               ; preds = %31, %26
  %65 = load ptr, ptr %5, align 8
  %66 = icmp ne ptr %65, null
  br i1 %66, label %67, label %75

67:                                               ; preds = %64
  %68 = call i32 @set_errcontext_domain(ptr noundef null)
  %69 = load ptr, ptr %3, align 8
  %70 = getelementptr inbounds nuw %struct.BindParamCbData, ptr %69, i32 0, i32 1
  %71 = load i32, ptr %70, align 8
  %72 = add i32 %71, 1
  %73 = load ptr, ptr %5, align 8
  %74 = call i32 (ptr, ...) @errcontext_msg(ptr noundef @.str.152, i32 noundef %72, ptr noundef %73)
  br label %82

75:                                               ; preds = %64
  %76 = call i32 @set_errcontext_domain(ptr noundef null)
  %77 = load ptr, ptr %3, align 8
  %78 = getelementptr inbounds nuw %struct.BindParamCbData, ptr %77, i32 0, i32 1
  %79 = load i32, ptr %78, align 8
  %80 = add i32 %79, 1
  %81 = call i32 (ptr, ...) @errcontext_msg(ptr noundef @.str.153, i32 noundef %80)
  br label %82

82:                                               ; preds = %75, %67
  br label %83

83:                                               ; preds = %82, %63
  %84 = load ptr, ptr %5, align 8
  %85 = icmp ne ptr %84, null
  br i1 %85, label %86, label %88

86:                                               ; preds = %83
  %87 = load ptr, ptr %5, align 8
  call void @pfree(ptr noundef %87)
  br label %88

88:                                               ; preds = %86, %83
  store i32 0, ptr %6, align 4
  br label %89

89:                                               ; preds = %88, %12
  call void @llvm.lifetime.end.p0(i64 8, ptr %5) #16
  call void @llvm.lifetime.end.p0(i64 24, ptr %4) #16
  call void @llvm.lifetime.end.p0(i64 8, ptr %3) #16
  %90 = load i32, ptr %6, align 4
  switch i32 %90, label %92 [
    i32 0, label %91
    i32 1, label %91
  ]

91:                                               ; preds = %89, %89
  ret void

92:                                               ; preds = %89
  unreachable
}