; Function Attrs: nounwind uwtable
define internal void @bind_param_error_callback(ptr noundef readonly captures(none) %0) #0 {
  %2 = alloca %struct.StringInfoData, align 8
  call void @llvm.lifetime.start.p0(i64 24, ptr nonnull %2) #22
  %3 = getelementptr inbounds nuw i8, ptr %0, i64 8
  %4 = load i32, ptr %3, align 8
  %5 = icmp slt i32 %4, 0
  br i1 %5, label %.thread, label %6

6:                                                ; preds = %1
  %7 = getelementptr inbounds nuw i8, ptr %0, i64 16
  %8 = load ptr, ptr %7, align 8
  %.not = icmp eq ptr %8, null
  br i1 %.not, label %13, label %9

9:                                                ; preds = %6
  call void @initStringInfo(ptr noundef nonnull %2) #22
  %10 = load ptr, ptr %7, align 8
  %11 = load i32, ptr @log_parameter_max_length_on_error, align 4
  call void @appendStringInfoStringQuoted(ptr noundef nonnull %2, ptr noundef %10, i32 noundef %11) #22
  %12 = load ptr, ptr %2, align 8
  br label %13

13:                                               ; preds = %6, %9
  %.0 = phi ptr [ %12, %9 ], [ null, %6 ]
  %14 = load ptr, ptr %0, align 8
  %.not19 = icmp eq ptr %14, null
  br i1 %.not19, label %26, label %15

15:                                               ; preds = %13
  %16 = load i8, ptr %14, align 1
  %.not20 = icmp eq i8 %16, 0
  br i1 %.not20, label %26, label %17

17:                                               ; preds = %15
  %.not22 = icmp eq ptr %.0, null
  %18 = call i32 @set_errcontext_domain(ptr noundef null) #22
  %19 = load ptr, ptr %0, align 8
  %20 = load i32, ptr %3, align 8
  %21 = add i32 %20, 1
  br i1 %.not22, label %24, label %22

22:                                               ; preds = %17
  %23 = call i32 (ptr, ...) @errcontext_msg(ptr noundef nonnull @.str.150, ptr noundef %19, i32 noundef %21, ptr noundef nonnull %.0) #22
  br label %34

24:                                               ; preds = %17
  %25 = call i32 (ptr, ...) @errcontext_msg(ptr noundef nonnull @.str.151, ptr noundef %19, i32 noundef %21) #22
  br label %.thread

26:                                               ; preds = %15, %13
  %.not21 = icmp eq ptr %.0, null
  %27 = call i32 @set_errcontext_domain(ptr noundef null) #22
  %28 = load i32, ptr %3, align 8
  %29 = add i32 %28, 1
  br i1 %.not21, label %32, label %30

30:                                               ; preds = %26
  %31 = call i32 (ptr, ...) @errcontext_msg(ptr noundef nonnull @.str.152, i32 noundef %29, ptr noundef nonnull %.0) #22
  br label %34

32:                                               ; preds = %26
  %33 = call i32 (ptr, ...) @errcontext_msg(ptr noundef nonnull @.str.153, i32 noundef %29) #22
  br label %.thread

34:                                               ; preds = %22, %30
  call void @pfree(ptr noundef nonnull %.0) #22
  br label %.thread

.thread:                                          ; preds = %24, %32, %34, %1
  call void @llvm.lifetime.end.p0(i64 24, ptr nonnull %2) #22
  ret void
}